target datalayout = "e-m:e-p270:32:32-p271:32:32-p272:64:64-i64:64-i128:128-f80:128-n8:16:32:64-S128"
target triple = "x86_64-unknown-linux-gnu"

%struct.counter_accum_s = type { %struct.locked_u64_s, i64 }
%struct.locked_u64_s = type { %struct.atomic_u64_t }
%struct.atomic_u64_t = type { i64 }

@opt_stats_interval_opts = hidden global [11 x i8] zeroinitializer, align 1
@stats_interval_accumulated = internal global %struct.counter_accum_s zeroinitializer, align 8

; Function Attrs: nounwind uwtable
define internal zeroext i1 @locked_inc_mod_u64(ptr noundef %tsdn, ptr noundef %mtx, ptr noundef %p, i64 noundef %x, i64 noundef %modulus) #0 {
entry:
  %retval.i23 = alloca i32, align 4
  %mo.addr.i24 = alloca i32, align 4
  %retval.i14 = alloca i32, align 4
  %mo.addr.i15 = alloca i32, align 4
  %retval.i = alloca i32, align 4
  %mo.addr.i13 = alloca i32, align 4
  %a.addr.i8 = alloca ptr, align 8
  %expected.addr.i = alloca ptr, align 8
  %desired.addr.i = alloca i64, align 8
  %success_mo.addr.i = alloca i32, align 4
  %failure_mo.addr.i = alloca i32, align 4
  %cmpxchg.bool.i = alloca i8, align 1
  %a.addr.i = alloca ptr, align 8
  %mo.addr.i = alloca i32, align 4
  %result.i = alloca i64, align 8
  %tsdn.addr = alloca ptr, align 8
  %mtx.addr = alloca ptr, align 8
  %p.addr = alloca ptr, align 8
  %x.addr = alloca i64, align 8
  %modulus.addr = alloca i64, align 8
  %before = alloca i64, align 8
  %after = alloca i64, align 8
  %overflow = alloca i8, align 1
  store ptr %tsdn, ptr %tsdn.addr, align 8
  store ptr %mtx, ptr %mtx.addr, align 8
  store ptr %p, ptr %p.addr, align 8
  store i64 %x, ptr %x.addr, align 8
  store i64 %modulus, ptr %modulus.addr, align 8
  br label %do.body

do.body:                                          ; preds = %entry
  br label %do.end

do.end:                                           ; preds = %do.body
  %0 = load ptr, ptr %p.addr, align 8
  %val = getelementptr inbounds %struct.locked_u64_s, ptr %0, i32 0, i32 0
  store ptr %val, ptr %a.addr.i, align 8
  store i32 0, ptr %mo.addr.i, align 4
  %1 = load ptr, ptr %a.addr.i, align 8
  %2 = load i32, ptr %mo.addr.i, align 4
  store i32 %2, ptr %mo.addr.i24, align 4
  %3 = load i32, ptr %mo.addr.i24, align 4
  switch i32 %3, label %sw.epilog.i30 [
    i32 0, label %sw.bb.i29
    i32 1, label %sw.bb1.i28
    i32 2, label %sw.bb2.i27
    i32 3, label %sw.bb3.i26
    i32 4, label %sw.bb4.i25
  ]

sw.bb.i29:                                        ; preds = %do.end
  store i32 0, ptr %retval.i23, align 4
  br label %atomic_enum_to_builtin.exit31

sw.bb1.i28:                                       ; preds = %do.end
  store i32 2, ptr %retval.i23, align 4
  br label %atomic_enum_to_builtin.exit31

sw.bb2.i27:                                       ; preds = %do.end
  store i32 3, ptr %retval.i23, align 4
  br label %atomic_enum_to_builtin.exit31

sw.bb3.i26:                                       ; preds = %do.end
  store i32 4, ptr %retval.i23, align 4
  br label %atomic_enum_to_builtin.exit31

sw.bb4.i25:                                       ; preds = %do.end
  store i32 5, ptr %retval.i23, align 4
  br label %atomic_enum_to_builtin.exit31

sw.epilog.i30:                                    ; preds = %do.end
  unreachable

atomic_enum_to_builtin.exit31:                    ; preds = %sw.bb4.i25, %sw.bb3.i26, %sw.bb2.i27, %sw.bb1.i28, %sw.bb.i29
  %4 = load i32, ptr %retval.i23, align 4
  switch i32 %4, label %monotonic.i [
    i32 1, label %acquire.i
    i32 2, label %acquire.i
    i32 5, label %seqcst.i
  ]

monotonic.i:                                      ; preds = %atomic_enum_to_builtin.exit31
  %5 = load atomic i64, ptr %1 monotonic, align 8
  store i64 %5, ptr %result.i, align 8
  br label %atomic_load_u64.exit

acquire.i:                                        ; preds = %atomic_enum_to_builtin.exit31, %atomic_enum_to_builtin.exit31
  %6 = load atomic i64, ptr %1 acquire, align 8
  store i64 %6, ptr %result.i, align 8
  br label %atomic_load_u64.exit

seqcst.i:                                         ; preds = %atomic_enum_to_builtin.exit31
  %7 = load atomic i64, ptr %1 seq_cst, align 8
  store i64 %7, ptr %result.i, align 8
  br label %atomic_load_u64.exit

atomic_load_u64.exit:                             ; preds = %seqcst.i, %acquire.i, %monotonic.i
  %8 = load i64, ptr %result.i, align 8
  store i64 %8, ptr %before, align 8
  br label %do.body1

do.body1:                                         ; preds = %atomic_compare_exchange_weak_u64.exit, %atomic_load_u64.exit
  %9 = load i64, ptr %before, align 8
  %10 = load i64, ptr %x.addr, align 8
  %add = add i64 %9, %10
  store i64 %add, ptr %after, align 8
  br label %do.body2

do.body2:                                         ; preds = %do.body1
  br label %do.end3

do.end3:                                          ; preds = %do.body2
  %11 = load i64, ptr %after, align 8
  %12 = load i64, ptr %modulus.addr, align 8
  %cmp = icmp uge i64 %11, %12
  %frombool = zext i1 %cmp to i8
  store i8 %frombool, ptr %overflow, align 1
  %13 = load i8, ptr %overflow, align 1
  %tobool = trunc i8 %13 to i1
  br i1 %tobool, label %if.then, label %if.end

if.then:                                          ; preds = %do.end3
  %14 = load i64, ptr %modulus.addr, align 8
  %15 = load i64, ptr %after, align 8
  %rem = urem i64 %15, %14
  store i64 %rem, ptr %after, align 8
  br label %if.end

if.end:                                           ; preds = %if.then, %do.end3
  br label %do.cond

do.cond:                                          ; preds = %if.end
  %16 = load ptr, ptr %p.addr, align 8
  %val4 = getelementptr inbounds %struct.locked_u64_s, ptr %16, i32 0, i32 0
  %17 = load i64, ptr %after, align 8
  store ptr %val4, ptr %a.addr.i8, align 8
  store ptr %before, ptr %expected.addr.i, align 8
  store i64 %17, ptr %desired.addr.i, align 8
  store i32 0, ptr %success_mo.addr.i, align 4
  store i32 0, ptr %failure_mo.addr.i, align 4
  %18 = load ptr, ptr %a.addr.i8, align 8
  %19 = load i32, ptr %success_mo.addr.i, align 4
  store i32 %19, ptr %mo.addr.i15, align 4
  %20 = load i32, ptr %mo.addr.i15, align 4
  switch i32 %20, label %sw.epilog.i21 [
    i32 0, label %sw.bb.i20
    i32 1, label %sw.bb1.i19
    i32 2, label %sw.bb2.i18
    i32 3, label %sw.bb3.i17
    i32 4, label %sw.bb4.i16
  ]

sw.bb.i20:                                        ; preds = %do.cond
  store i32 0, ptr %retval.i14, align 4
  br label %atomic_enum_to_builtin.exit22

sw.bb1.i19:                                       ; preds = %do.cond
  store i32 2, ptr %retval.i14, align 4
  br label %atomic_enum_to_builtin.exit22

sw.bb2.i18:                                       ; preds = %do.cond
  store i32 3, ptr %retval.i14, align 4
  br label %atomic_enum_to_builtin.exit22

sw.bb3.i17:                                       ; preds = %do.cond
  store i32 4, ptr %retval.i14, align 4
  br label %atomic_enum_to_builtin.exit22

sw.bb4.i16:                                       ; preds = %do.cond
  store i32 5, ptr %retval.i14, align 4
  br label %atomic_enum_to_builtin.exit22

sw.epilog.i21:                                    ; preds = %do.cond
  unreachable

atomic_enum_to_builtin.exit22:                    ; preds = %sw.bb4.i16, %sw.bb3.i17, %sw.bb2.i18, %sw.bb1.i19, %sw.bb.i20
  %21 = load i32, ptr %retval.i14, align 4
  %22 = load ptr, ptr %expected.addr.i, align 8
  %23 = load i32, ptr %failure_mo.addr.i, align 4
  store i32 %23, ptr %mo.addr.i13, align 4
  %24 = load i32, ptr %mo.addr.i13, align 4
  switch i32 %24, label %sw.epilog.i [
    i32 0, label %sw.bb.i
    i32 1, label %sw.bb1.i
    i32 2, label %sw.bb2.i
    i32 3, label %sw.bb3.i
    i32 4, label %sw.bb4.i
  ]

sw.bb.i:                                          ; preds = %atomic_enum_to_builtin.exit22
  store i32 0, ptr %retval.i, align 4
  br label %atomic_enum_to_builtin.exit

sw.bb1.i:                                         ; preds = %atomic_enum_to_builtin.exit22
  store i32 2, ptr %retval.i, align 4
  br label %atomic_enum_to_builtin.exit

sw.bb2.i:                                         ; preds = %atomic_enum_to_builtin.exit22
  store i32 3, ptr %retval.i, align 4
  br label %atomic_enum_to_builtin.exit

sw.bb3.i:                                         ; preds = %atomic_enum_to_builtin.exit22
  store i32 4, ptr %retval.i, align 4
  br label %atomic_enum_to_builtin.exit

sw.bb4.i:                                         ; preds = %atomic_enum_to_builtin.exit22
  store i32 5, ptr %retval.i, align 4
  br label %atomic_enum_to_builtin.exit

sw.epilog.i:                                      ; preds = %atomic_enum_to_builtin.exit22
  unreachable

atomic_enum_to_builtin.exit:                      ; preds = %sw.bb4.i, %sw.bb3.i, %sw.bb2.i, %sw.bb1.i, %sw.bb.i
  %25 = load i32, ptr %retval.i, align 4
  switch i32 %21, label %monotonic.i12 [
    i32 1, label %acquire.i11
    i32 2, label %acquire.i11
    i32 3, label %release.i
    i32 4, label %acqrel.i
    i32 5, label %seqcst.i10
  ]

monotonic.i12:                                    ; preds = %atomic_enum_to_builtin.exit
  switch i32 %25, label %monotonic_fail.i [
    i32 1, label %acquire_fail.i
    i32 2, label %acquire_fail.i
    i32 5, label %seqcst_fail.i
  ]

acquire.i11:                                      ; preds = %atomic_enum_to_builtin.exit, %atomic_enum_to_builtin.exit
  switch i32 %25, label %monotonic_fail9.i [
    i32 1, label %acquire_fail10.i
    i32 2, label %acquire_fail10.i
    i32 5, label %seqcst_fail11.i
  ]

release.i:                                        ; preds = %atomic_enum_to_builtin.exit
  switch i32 %25, label %monotonic_fail22.i [
    i32 1, label %acquire_fail23.i
    i32 2, label %acquire_fail23.i
    i32 5, label %seqcst_fail24.i
  ]

acqrel.i:                                         ; preds = %atomic_enum_to_builtin.exit
  switch i32 %25, label %monotonic_fail35.i [
    i32 1, label %acquire_fail36.i
    i32 2, label %acquire_fail36.i
    i32 5, label %seqcst_fail37.i
  ]

seqcst.i10:                                       ; preds = %atomic_enum_to_builtin.exit
  switch i32 %25, label %monotonic_fail48.i [
    i32 1, label %acquire_fail49.i
    i32 2, label %acquire_fail49.i
    i32 5, label %seqcst_fail50.i
  ]

monotonic_fail.i:                                 ; preds = %monotonic.i12
  %26 = load i64, ptr %22, align 8
  %27 = load i64, ptr %desired.addr.i, align 8
  %28 = cmpxchg weak ptr %18, i64 %26, i64 %27 monotonic monotonic, align 8
  %29 = extractvalue { i64, i1 } %28, 0
  %30 = extractvalue { i64, i1 } %28, 1
  br i1 %30, label %cmpxchg.continue.i, label %cmpxchg.store_expected.i

acquire_fail.i:                                   ; preds = %monotonic.i12, %monotonic.i12
  %31 = load i64, ptr %22, align 8
  %32 = load i64, ptr %desired.addr.i, align 8
  %33 = cmpxchg weak ptr %18, i64 %31, i64 %32 monotonic acquire, align 8
  %34 = extractvalue { i64, i1 } %33, 0
  %35 = extractvalue { i64, i1 } %33, 1
  br i1 %35, label %cmpxchg.continue4.i, label %cmpxchg.store_expected3.i

seqcst_fail.i:                                    ; preds = %monotonic.i12
  %36 = load i64, ptr %22, align 8
  %37 = load i64, ptr %desired.addr.i, align 8
  %38 = cmpxchg weak ptr %18, i64 %36, i64 %37 monotonic seq_cst, align 8
  %39 = extractvalue { i64, i1 } %38, 0
  %40 = extractvalue { i64, i1 } %38, 1
  br i1 %40, label %cmpxchg.continue7.i, label %cmpxchg.store_expected6.i

atomic.continue2.i:                               ; preds = %cmpxchg.continue7.i, %cmpxchg.continue4.i, %cmpxchg.continue.i
  br label %atomic_compare_exchange_weak_u64.exit

cmpxchg.store_expected.i:                         ; preds = %monotonic_fail.i
  store i64 %29, ptr %22, align 8
  br label %cmpxchg.continue.i

cmpxchg.continue.i:                               ; preds = %cmpxchg.store_expected.i, %monotonic_fail.i
  %frombool.i = zext i1 %30 to i8
  store i8 %frombool.i, ptr %cmpxchg.bool.i, align 1
  br label %atomic.continue2.i

cmpxchg.store_expected3.i:                        ; preds = %acquire_fail.i
  store i64 %34, ptr %22, align 8
  br label %cmpxchg.continue4.i

cmpxchg.continue4.i:                              ; preds = %cmpxchg.store_expected3.i, %acquire_fail.i
  %frombool5.i = zext i1 %35 to i8
  store i8 %frombool5.i, ptr %cmpxchg.bool.i, align 1
  br label %atomic.continue2.i

cmpxchg.store_expected6.i:                        ; preds = %seqcst_fail.i
  store i64 %39, ptr %22, align 8
  br label %cmpxchg.continue7.i

cmpxchg.continue7.i:                              ; preds = %cmpxchg.store_expected6.i, %seqcst_fail.i
  %frombool8.i = zext i1 %40 to i8
  store i8 %frombool8.i, ptr %cmpxchg.bool.i, align 1
  br label %atomic.continue2.i

monotonic_fail9.i:                                ; preds = %acquire.i11
  %41 = load i64, ptr %22, align 8
  %42 = load i64, ptr %desired.addr.i, align 8
  %43 = cmpxchg weak ptr %18, i64 %41, i64 %42 acquire monotonic, align 8
  %44 = extractvalue { i64, i1 } %43, 0
  %45 = extractvalue { i64, i1 } %43, 1
  br i1 %45, label %cmpxchg.continue14.i, label %cmpxchg.store_expected13.i

acquire_fail10.i:                                 ; preds = %acquire.i11, %acquire.i11
  %46 = load i64, ptr %22, align 8
  %47 = load i64, ptr %desired.addr.i, align 8
  %48 = cmpxchg weak ptr %18, i64 %46, i64 %47 acquire acquire, align 8
  %49 = extractvalue { i64, i1 } %48, 0
  %50 = extractvalue { i64, i1 } %48, 1
  br i1 %50, label %cmpxchg.continue17.i, label %cmpxchg.store_expected16.i

seqcst_fail11.i:                                  ; preds = %acquire.i11
  %51 = load i64, ptr %22, align 8
  %52 = load i64, ptr %desired.addr.i, align 8
  %53 = cmpxchg weak ptr %18, i64 %51, i64 %52 acquire seq_cst, align 8
  %54 = extractvalue { i64, i1 } %53, 0
  %55 = extractvalue { i64, i1 } %53, 1
  br i1 %55, label %cmpxchg.continue20.i, label %cmpxchg.store_expected19.i

atomic.continue12.i:                              ; preds = %cmpxchg.continue20.i, %cmpxchg.continue17.i, %cmpxchg.continue14.i
  br label %atomic_compare_exchange_weak_u64.exit

cmpxchg.store_expected13.i:                       ; preds = %monotonic_fail9.i
  store i64 %44, ptr %22, align 8
  br label %cmpxchg.continue14.i

cmpxchg.continue14.i:                             ; preds = %cmpxchg.store_expected13.i, %monotonic_fail9.i
  %frombool15.i = zext i1 %45 to i8
  store i8 %frombool15.i, ptr %cmpxchg.bool.i, align 1
  br label %atomic.continue12.i

cmpxchg.store_expected16.i:                       ; preds = %acquire_fail10.i
  store i64 %49, ptr %22, align 8
  br label %cmpxchg.continue17.i

cmpxchg.continue17.i:                             ; preds = %cmpxchg.store_expected16.i, %acquire_fail10.i
  %frombool18.i = zext i1 %50 to i8
  store i8 %frombool18.i, ptr %cmpxchg.bool.i, align 1
  br label %atomic.continue12.i

cmpxchg.store_expected19.i:                       ; preds = %seqcst_fail11.i
  store i64 %54, ptr %22, align 8
  br label %cmpxchg.continue20.i

cmpxchg.continue20.i:                             ; preds = %cmpxchg.store_expected19.i, %seqcst_fail11.i
  %frombool21.i = zext i1 %55 to i8
  store i8 %frombool21.i, ptr %cmpxchg.bool.i, align 1
  br label %atomic.continue12.i

monotonic_fail22.i:                               ; preds = %release.i
  %56 = load i64, ptr %22, align 8
  %57 = load i64, ptr %desired.addr.i, align 8
  %58 = cmpxchg weak ptr %18, i64 %56, i64 %57 release monotonic, align 8
  %59 = extractvalue { i64, i1 } %58, 0
  %60 = extractvalue { i64, i1 } %58, 1
  br i1 %60, label %cmpxchg.continue27.i, label %cmpxchg.store_expected26.i

acquire_fail23.i:                                 ; preds = %release.i, %release.i
  %61 = load i64, ptr %22, align 8
  %62 = load i64, ptr %desired.addr.i, align 8
  %63 = cmpxchg weak ptr %18, i64 %61, i64 %62 release acquire, align 8
  %64 = extractvalue { i64, i1 } %63, 0
  %65 = extractvalue { i64, i1 } %63, 1
  br i1 %65, label %cmpxchg.continue30.i, label %cmpxchg.store_expected29.i

seqcst_fail24.i:                                  ; preds = %release.i
  %66 = load i64, ptr %22, align 8
  %67 = load i64, ptr %desired.addr.i, align 8
  %68 = cmpxchg weak ptr %18, i64 %66, i64 %67 release seq_cst, align 8
  %69 = extractvalue { i64, i1 } %68, 0
  %70 = extractvalue { i64, i1 } %68, 1
  br i1 %70, label %cmpxchg.continue33.i, label %cmpxchg.store_expected32.i

atomic.continue25.i:                              ; preds = %cmpxchg.continue33.i, %cmpxchg.continue30.i, %cmpxchg.continue27.i
  br label %atomic_compare_exchange_weak_u64.exit

cmpxchg.store_expected26.i:                       ; preds = %monotonic_fail22.i
  store i64 %59, ptr %22, align 8
  br label %cmpxchg.continue27.i

cmpxchg.continue27.i:                             ; preds = %cmpxchg.store_expected26.i, %monotonic_fail22.i
  %frombool28.i = zext i1 %60 to i8
  store i8 %frombool28.i, ptr %cmpxchg.bool.i, align 1
  br label %atomic.continue25.i

cmpxchg.store_expected29.i:                       ; preds = %acquire_fail23.i
  store i64 %64, ptr %22, align 8
  br label %cmpxchg.continue30.i

cmpxchg.continue30.i:                             ; preds = %cmpxchg.store_expected29.i, %acquire_fail23.i
  %frombool31.i = zext i1 %65 to i8
  store i8 %frombool31.i, ptr %cmpxchg.bool.i, align 1
  br label %atomic.continue25.i

cmpxchg.store_expected32.i:                       ; preds = %seqcst_fail24.i
  store i64 %69, ptr %22, align 8
  br label %cmpxchg.continue33.i

cmpxchg.continue33.i:                             ; preds = %cmpxchg.store_expected32.i, %seqcst_fail24.i
  %frombool34.i = zext i1 %70 to i8
  store i8 %frombool34.i, ptr %cmpxchg.bool.i, align 1
  br label %atomic.continue25.i

monotonic_fail35.i:                               ; preds = %acqrel.i
  %71 = load i64, ptr %22, align 8
  %72 = load i64, ptr %desired.addr.i, align 8
  %73 = cmpxchg weak ptr %18, i64 %71, i64 %72 acq_rel monotonic, align 8
  %74 = extractvalue { i64, i1 } %73, 0
  %75 = extractvalue { i64, i1 } %73, 1
  br i1 %75, label %cmpxchg.continue40.i, label %cmpxchg.store_expected39.i

acquire_fail36.i:                                 ; preds = %acqrel.i, %acqrel.i
  %76 = load i64, ptr %22, align 8
  %77 = load i64, ptr %desired.addr.i, align 8
  %78 = cmpxchg weak ptr %18, i64 %76, i64 %77 acq_rel acquire, align 8
  %79 = extractvalue { i64, i1 } %78, 0
  %80 = extractvalue { i64, i1 } %78, 1
  br i1 %80, label %cmpxchg.continue43.i, label %cmpxchg.store_expected42.i

seqcst_fail37.i:                                  ; preds = %acqrel.i
  %81 = load i64, ptr %22, align 8
  %82 = load i64, ptr %desired.addr.i, align 8
  %83 = cmpxchg weak ptr %18, i64 %81, i64 %82 acq_rel seq_cst, align 8
  %84 = extractvalue { i64, i1 } %83, 0
  %85 = extractvalue { i64, i1 } %83, 1
  br i1 %85, label %cmpxchg.continue46.i, label %cmpxchg.store_expected45.i

atomic.continue38.i:                              ; preds = %cmpxchg.continue46.i, %cmpxchg.continue43.i, %cmpxchg.continue40.i
  br label %atomic_compare_exchange_weak_u64.exit

cmpxchg.store_expected39.i:                       ; preds = %monotonic_fail35.i
  store i64 %74, ptr %22, align 8
  br label %cmpxchg.continue40.i

cmpxchg.continue40.i:                             ; preds = %cmpxchg.store_expected39.i, %monotonic_fail35.i
  %frombool41.i = zext i1 %75 to i8
  store i8 %frombool41.i, ptr %cmpxchg.bool.i, align 1
  br label %atomic.continue38.i

cmpxchg.store_expected42.i:                       ; preds = %acquire_fail36.i
  store i64 %79, ptr %22, align 8
  br label %cmpxchg.continue43.i

cmpxchg.continue43.i:                             ; preds = %cmpxchg.store_expected42.i, %acquire_fail36.i
  %frombool44.i = zext i1 %80 to i8
  store i8 %frombool44.i, ptr %cmpxchg.bool.i, align 1
  br label %atomic.continue38.i

cmpxchg.store_expected45.i:                       ; preds = %seqcst_fail37.i
  store i64 %84, ptr %22, align 8
  br label %cmpxchg.continue46.i

cmpxchg.continue46.i:                             ; preds = %cmpxchg.store_expected45.i, %seqcst_fail37.i
  %frombool47.i = zext i1 %85 to i8
  store i8 %frombool47.i, ptr %cmpxchg.bool.i, align 1
  br label %atomic.continue38.i

monotonic_fail48.i:                               ; preds = %seqcst.i10
  %86 = load i64, ptr %22, align 8
  %87 = load i64, ptr %desired.addr.i, align 8
  %88 = cmpxchg weak ptr %18, i64 %86, i64 %87 seq_cst monotonic, align 8
  %89 = extractvalue { i64, i1 } %88, 0
  %90 = extractvalue { i64, i1 } %88, 1
  br i1 %90, label %cmpxchg.continue53.i, label %cmpxchg.store_expected52.i

acquire_fail49.i:                                 ; preds = %seqcst.i10, %seqcst.i10
  %91 = load i64, ptr %22, align 8
  %92 = load i64, ptr %desired.addr.i, align 8
  %93 = cmpxchg weak ptr %18, i64 %91, i64 %92 seq_cst acquire, align 8
  %94 = extractvalue { i64, i1 } %93, 0
  %95 = extractvalue { i64, i1 } %93, 1
  br i1 %95, label %cmpxchg.continue56.i, label %cmpxchg.store_expected55.i

seqcst_fail50.i:                                  ; preds = %seqcst.i10
  %96 = load i64, ptr %22, align 8
  %97 = load i64, ptr %desired.addr.i, align 8
  %98 = cmpxchg weak ptr %18, i64 %96, i64 %97 seq_cst seq_cst, align 8
  %99 = extractvalue { i64, i1 } %98, 0
  %100 = extractvalue { i64, i1 } %98, 1
  br i1 %100, label %cmpxchg.continue59.i, label %cmpxchg.store_expected58.i

atomic.continue51.i:                              ; preds = %cmpxchg.continue59.i, %cmpxchg.continue56.i, %cmpxchg.continue53.i
  br label %atomic_compare_exchange_weak_u64.exit

cmpxchg.store_expected52.i:                       ; preds = %monotonic_fail48.i
  store i64 %89, ptr %22, align 8
  br label %cmpxchg.continue53.i

cmpxchg.continue53.i:                             ; preds = %cmpxchg.store_expected52.i, %monotonic_fail48.i
  %frombool54.i = zext i1 %90 to i8
  store i8 %frombool54.i, ptr %cmpxchg.bool.i, align 1
  br label %atomic.continue51.i

cmpxchg.store_expected55.i:                       ; preds = %acquire_fail49.i
  store i64 %94, ptr %22, align 8
  br label %cmpxchg.continue56.i

cmpxchg.continue56.i:                             ; preds = %cmpxchg.store_expected55.i, %acquire_fail49.i
  %frombool57.i = zext i1 %95 to i8
  store i8 %frombool57.i, ptr %cmpxchg.bool.i, align 1
  br label %atomic.continue51.i

cmpxchg.store_expected58.i:                       ; preds = %seqcst_fail50.i
  store i64 %99, ptr %22, align 8
  br label %cmpxchg.continue59.i

cmpxchg.continue59.i:                             ; preds = %cmpxchg.store_expected58.i, %seqcst_fail50.i
  %frombool60.i = zext i1 %100 to i8
  store i8 %frombool60.i, ptr %cmpxchg.bool.i, align 1
  br label %atomic.continue51.i

atomic_compare_exchange_weak_u64.exit:            ; preds = %atomic.continue51.i, %atomic.continue38.i, %atomic.continue25.i, %atomic.continue12.i, %atomic.continue2.i
  %101 = load i8, ptr %cmpxchg.bool.i, align 1
  %tobool.i = trunc i8 %101 to i1
  %lnot = xor i1 %tobool.i, true
  br i1 %lnot, label %do.body1, label %do.end6, !llvm.loop !19

do.end6:                                          ; preds = %atomic_compare_exchange_weak_u64.exit
  %102 = load i8, ptr %overflow, align 1
  %tobool7 = trunc i8 %102 to i1
  ret i1 %tobool7
}

; Function Attrs: nounwind uwtable
define hidden void @stats_interval_event_handler(ptr noundef %tsd, i64 noundef %elapsed) #0 {
entry:
  %tsd.addr.i = alloca ptr, align 8
  %tsdn.addr.i = alloca ptr, align 8
  %counter.addr.i = alloca ptr, align 8
  %bytes.addr.i = alloca i64, align 8
  %interval.i = alloca i64, align 8
  %overflow.i = alloca i8, align 1
  %tsd.addr = alloca ptr, align 8
  %elapsed.addr = alloca i64, align 8
  store ptr %tsd, ptr %tsd.addr, align 8
  store i64 %elapsed, ptr %elapsed.addr, align 8
  br label %do.body

do.body:                                          ; preds = %entry
  br label %do.end

do.end:                                           ; preds = %do.body
  %0 = load ptr, ptr %tsd.addr, align 8
  store ptr %0, ptr %tsd.addr.i, align 8
  %1 = load ptr, ptr %tsd.addr.i, align 8
  %2 = load i64, ptr %elapsed.addr, align 8
  store ptr %1, ptr %tsdn.addr.i, align 8
  store ptr @stats_interval_accumulated, ptr %counter.addr.i, align 8
  store i64 %2, ptr %bytes.addr.i, align 8
  %3 = load ptr, ptr %counter.addr.i, align 8
  %interval1.i = getelementptr inbounds %struct.counter_accum_s, ptr %3, i32 0, i32 1
  %4 = load i64, ptr %interval1.i, align 8
  store i64 %4, ptr %interval.i, align 8
  %5 = load ptr, ptr %tsdn.addr.i, align 8
  %6 = load ptr, ptr %counter.addr.i, align 8
  %7 = load i64, ptr %bytes.addr.i, align 8
  %8 = load i64, ptr %interval.i, align 8
  %call.i = call zeroext i1 @locked_inc_mod_u64(ptr noundef %5, ptr noundef null, ptr noundef %6, i64 noundef %7, i64 noundef %8)
  %frombool.i = zext i1 %call.i to i8
  store i8 %frombool.i, ptr %overflow.i, align 1
  %9 = load i8, ptr %overflow.i, align 1
  %tobool.i = trunc i8 %9 to i1
  br i1 %tobool.i, label %if.then, label %if.end

if.then:                                          ; preds = %do.end
  call void @je_malloc_stats_print(ptr noundef null, ptr noundef null, ptr noundef @opt_stats_interval_opts) #7
  br label %if.end

if.end:                                           ; preds = %if.then, %do.end
  ret void
}