; Function Attrs: nounwind uwtable
define hidden void @stats_interval_event_handler(ptr nocapture noundef readnone %tsd, i64 noundef %elapsed) local_unnamed_addr #0 {
entry:
  %0 = load i64, ptr getelementptr inbounds (%struct.counter_accum_s, ptr @stats_interval_accumulated, i64 0, i32 1), align 8
  %1 = load atomic i64, ptr @stats_interval_accumulated monotonic, align 8
  br label %do.body1.i

do.body1.i:                                       ; preds = %do.body1.i.backedge, %entry
  %before.0.i = phi i64 [ %1, %entry ], [ %before.0.i.be, %do.body1.i.backedge ]
  %add.i = add i64 %before.0.i, %elapsed
  %cmp.i.not = icmp ult i64 %add.i, %0
  br i1 %cmp.i.not, label %monotonic_fail.i.i.thread, label %monotonic_fail.i.i

monotonic_fail.i.i:                               ; preds = %do.body1.i
  %rem.i = urem i64 %add.i, %0
  %2 = cmpxchg weak ptr @stats_interval_accumulated, i64 %before.0.i, i64 %rem.i monotonic monotonic, align 8
  %3 = extractvalue { i64, i1 } %2, 1
  br i1 %3, label %if.then, label %do.body1.i.backedge

do.body1.i.backedge:                              ; preds = %monotonic_fail.i.i, %monotonic_fail.i.i.thread
  %.pn = phi { i64, i1 } [ %2, %monotonic_fail.i.i ], [ %4, %monotonic_fail.i.i.thread ]
  %before.0.i.be = extractvalue { i64, i1 } %.pn, 0
  br label %do.body1.i, !llvm.loop !13

monotonic_fail.i.i.thread:                        ; preds = %do.body1.i
  %4 = cmpxchg weak ptr @stats_interval_accumulated, i64 %before.0.i, i64 %add.i monotonic monotonic, align 8
  %5 = extractvalue { i64, i1 } %4, 1
  br i1 %5, label %if.end, label %do.body1.i.backedge

if.then:                                          ; preds = %monotonic_fail.i.i
  tail call void @je_malloc_stats_print(ptr noundef null, ptr noundef null, ptr noundef nonnull @opt_stats_interval_opts) #13
  br label %if.end

if.end:                                           ; preds = %monotonic_fail.i.i.thread, %if.then
  ret void
}